; Function Attrs: mustprogress nofree norecurse nosync nounwind willreturn memory(read, inaccessiblemem: none) uwtable
define hidden zeroext i1 @lxb_html_parser_scripting_noi(ptr nocapture noundef readonly %0) local_unnamed_addr #4 {
  %2 = getelementptr i8, ptr %0, i64 8
  %.val = load ptr, ptr %2, align 8
  %3 = getelementptr i8, ptr %.val, i64 82
  %.val.val = load i8, ptr %3, align 2
  %4 = and i8 %.val.val, 1
  %5 = icmp ne i8 %4, 0
  ret i1 %5
}